target datalayout = "e-m:e-p270:32:32-p271:32:32-p272:64:64-i64:64-i128:128-f80:128-n8:16:32:64-S128"
target triple = "x86_64-pc-linux-gnu"

%struct.Vec_Ptr_t_ = type { i32, i32, ptr }
%struct.Vec_Int_t_ = type { i32, i32, ptr }
%struct.Sim_Man_t_ = type { ptr, i32, i32, i32, i32, i32, ptr, ptr, i32, i32, ptr, ptr, ptr, i32, ptr, ptr, ptr, i32, i32, i32, i64, i64, i64, i64, i64 }
%struct.Abc_Obj_t_ = type { ptr, ptr, i32, i32, %struct.Vec_Int_t_, %struct.Vec_Int_t_, %union.anon, %union.anon.0 }
%union.anon = type { ptr }
%union.anon.0 = type { ptr }
%struct.Abc_Ntk_t_ = type { i32, i32, ptr, ptr, ptr, ptr, ptr, ptr, ptr, ptr, ptr, ptr, ptr, [11 x i32], i32, i32, i32, i32, ptr, i32, ptr, ptr, i32, i32, i32, double, i32, %struct.Vec_Int_t_, ptr, ptr, ptr, ptr, ptr, float, i32, ptr, ptr, ptr, ptr, ptr, ptr, ptr, ptr, ptr, ptr, ptr, ptr, ptr, ptr, ptr, ptr, ptr, ptr, ptr, ptr, ptr, ptr }

; Function Attrs: inlinehint nounwind uwtable
define internal ptr @Vec_PtrEntry(ptr noundef %0, i32 noundef %1) #2 {
  %3 = alloca ptr, align 8
  %4 = alloca i32, align 4
  store ptr %0, ptr %3, align 8, !tbaa !7
  store i32 %1, ptr %4, align 4, !tbaa !3
  %5 = load ptr, ptr %3, align 8, !tbaa !7
  %6 = getelementptr inbounds nuw %struct.Vec_Ptr_t_, ptr %5, i32 0, i32 2
  %7 = load ptr, ptr %6, align 8, !tbaa !10
  %8 = load i32, ptr %4, align 4, !tbaa !3
  %9 = sext i32 %8 to i64
  %10 = getelementptr inbounds ptr, ptr %7, i64 %9
  %11 = load ptr, ptr %10, align 8, !tbaa !12
  ret ptr %11
}

; Function Attrs: inlinehint nounwind uwtable
define internal i32 @Vec_PtrSize(ptr noundef %0) #2 {
  %2 = alloca ptr, align 8
  store ptr %0, ptr %2, align 8, !tbaa !7
  %3 = load ptr, ptr %2, align 8, !tbaa !7
  %4 = getelementptr inbounds nuw %struct.Vec_Ptr_t_, ptr %3, i32 0, i32 1
  %5 = load i32, ptr %4, align 4, !tbaa !15
  ret i32 %5
}

; Function Attrs: inlinehint nounwind uwtable
define internal ptr @Abc_NtkCi(ptr noundef %0, i32 noundef %1) #2 {
  %3 = alloca ptr, align 8
  %4 = alloca i32, align 4
  store ptr %0, ptr %3, align 8, !tbaa !61
  store i32 %1, ptr %4, align 4, !tbaa !3
  %5 = load ptr, ptr %3, align 8, !tbaa !61
  %6 = getelementptr inbounds nuw %struct.Abc_Ntk_t_, ptr %5, i32 0, i32 8
  %7 = load ptr, ptr %6, align 8, !tbaa !82
  %8 = load i32, ptr %4, align 4, !tbaa !3
  %9 = call ptr @Vec_PtrEntry(ptr noundef %7, i32 noundef %8)
  ret ptr %9
}

; Function Attrs: inlinehint nounwind uwtable
define internal i32 @Abc_NtkCiNum(ptr noundef %0) #2 {
  %2 = alloca ptr, align 8
  store ptr %0, ptr %2, align 8, !tbaa !61
  %3 = load ptr, ptr %2, align 8, !tbaa !61
  %4 = getelementptr inbounds nuw %struct.Abc_Ntk_t_, ptr %3, i32 0, i32 8
  %5 = load ptr, ptr %4, align 8, !tbaa !82
  %6 = call i32 @Vec_PtrSize(ptr noundef %5)
  ret i32 %6
}

; Function Attrs: inlinehint nounwind uwtable
define internal ptr @Abc_NtkCo(ptr noundef %0, i32 noundef %1) #2 {
  %3 = alloca ptr, align 8
  %4 = alloca i32, align 4
  store ptr %0, ptr %3, align 8, !tbaa !61
  store i32 %1, ptr %4, align 4, !tbaa !3
  %5 = load ptr, ptr %3, align 8, !tbaa !61
  %6 = getelementptr inbounds nuw %struct.Abc_Ntk_t_, ptr %5, i32 0, i32 9
  %7 = load ptr, ptr %6, align 8, !tbaa !68
  %8 = load i32, ptr %4, align 4, !tbaa !3
  %9 = call ptr @Vec_PtrEntry(ptr noundef %7, i32 noundef %8)
  ret ptr %9
}

; Function Attrs: inlinehint nounwind uwtable
define internal i32 @Abc_NtkCoNum(ptr noundef %0) #2 {
  %2 = alloca ptr, align 8
  store ptr %0, ptr %2, align 8, !tbaa !61
  %3 = load ptr, ptr %2, align 8, !tbaa !61
  %4 = getelementptr inbounds nuw %struct.Abc_Ntk_t_, ptr %3, i32 0, i32 9
  %5 = load ptr, ptr %4, align 8, !tbaa !68
  %6 = call i32 @Vec_PtrSize(ptr noundef %5)
  ret i32 %6
}

; Function Attrs: nounwind uwtable
define i32 @Sim_UtilCountSuppSizes(ptr noundef %0, i32 noundef %1) #0 {
  %3 = alloca ptr, align 8
  %4 = alloca i32, align 4
  %5 = alloca ptr, align 8
  %6 = alloca ptr, align 8
  %7 = alloca i32, align 4
  %8 = alloca i32, align 4
  %9 = alloca i32, align 4
  store ptr %0, ptr %3, align 8, !tbaa !30
  store i32 %1, ptr %4, align 4, !tbaa !3
  call void @llvm.lifetime.start.p0(i64 8, ptr %5) #8
  call void @llvm.lifetime.start.p0(i64 8, ptr %6) #8
  call void @llvm.lifetime.start.p0(i64 4, ptr %7) #8
  call void @llvm.lifetime.start.p0(i64 4, ptr %8) #8
  call void @llvm.lifetime.start.p0(i64 4, ptr %9) #8
  store i32 0, ptr %9, align 4, !tbaa !3
  %10 = load i32, ptr %4, align 4, !tbaa !3
  %11 = icmp ne i32 %10, 0
  br i1 %11, label %12, label %77

12:                                               ; preds = %2
  store i32 0, ptr %7, align 4, !tbaa !3
  br label %13

13:                                               ; preds = %73, %12
  %14 = load i32, ptr %7, align 4, !tbaa !3
  %15 = load ptr, ptr %3, align 8, !tbaa !30
  %16 = getelementptr inbounds nuw %struct.Sim_Man_t_, ptr %15, i32 0, i32 0
  %17 = load ptr, ptr %16, align 8, !tbaa !46
  %18 = call i32 @Abc_NtkCoNum(ptr noundef %17)
  %19 = icmp slt i32 %14, %18
  br i1 %19, label %20, label %26

20:                                               ; preds = %13
  %21 = load ptr, ptr %3, align 8, !tbaa !30
  %22 = getelementptr inbounds nuw %struct.Sim_Man_t_, ptr %21, i32 0, i32 0
  %23 = load ptr, ptr %22, align 8, !tbaa !46
  %24 = load i32, ptr %7, align 4, !tbaa !3
  %25 = call ptr @Abc_NtkCo(ptr noundef %23, i32 noundef %24)
  store ptr %25, ptr %5, align 8, !tbaa !32
  br label %26

26:                                               ; preds = %20, %13
  %27 = phi i1 [ false, %13 ], [ true, %20 ]
  br i1 %27, label %28, label %76

28:                                               ; preds = %26
  store i32 0, ptr %8, align 4, !tbaa !3
  br label %29

29:                                               ; preds = %69, %28
  %30 = load i32, ptr %8, align 4, !tbaa !3
  %31 = load ptr, ptr %3, align 8, !tbaa !30
  %32 = getelementptr inbounds nuw %struct.Sim_Man_t_, ptr %31, i32 0, i32 0
  %33 = load ptr, ptr %32, align 8, !tbaa !46
  %34 = call i32 @Abc_NtkCiNum(ptr noundef %33)
  %35 = icmp slt i32 %30, %34
  br i1 %35, label %36, label %42

36:                                               ; preds = %29
  %37 = load ptr, ptr %3, align 8, !tbaa !30
  %38 = getelementptr inbounds nuw %struct.Sim_Man_t_, ptr %37, i32 0, i32 0
  %39 = load ptr, ptr %38, align 8, !tbaa !46
  %40 = load i32, ptr %8, align 4, !tbaa !3
  %41 = call ptr @Abc_NtkCi(ptr noundef %39, i32 noundef %40)
  store ptr %41, ptr %6, align 8, !tbaa !32
  br label %42

42:                                               ; preds = %36, %29
  %43 = phi i1 [ false, %29 ], [ true, %36 ]
  br i1 %43, label %44, label %72

44:                                               ; preds = %42
  %45 = load ptr, ptr %3, align 8, !tbaa !30
  %46 = getelementptr inbounds nuw %struct.Sim_Man_t_, ptr %45, i32 0, i32 10
  %47 = load ptr, ptr %46, align 8, !tbaa !76
  %48 = getelementptr inbounds nuw %struct.Vec_Ptr_t_, ptr %47, i32 0, i32 2
  %49 = load ptr, ptr %48, align 8, !tbaa !10
  %50 = load ptr, ptr %5, align 8, !tbaa !32
  %51 = getelementptr inbounds nuw %struct.Abc_Obj_t_, ptr %50, i32 0, i32 2
  %52 = load i32, ptr %51, align 8, !tbaa !40
  %53 = sext i32 %52 to i64
  %54 = getelementptr inbounds ptr, ptr %49, i64 %53
  %55 = load ptr, ptr %54, align 8, !tbaa !12
  %56 = load i32, ptr %8, align 4, !tbaa !3
  %57 = ashr i32 %56, 5
  %58 = sext i32 %57 to i64
  %59 = getelementptr inbounds i32, ptr %55, i64 %58
  %60 = load i32, ptr %59, align 4, !tbaa !3
  %61 = load i32, ptr %8, align 4, !tbaa !3
  %62 = and i32 %61, 31
  %63 = shl i32 1, %62
  %64 = and i32 %60, %63
  %65 = icmp ugt i32 %64, 0
  %66 = zext i1 %65 to i32
  %67 = load i32, ptr %9, align 4, !tbaa !3
  %68 = add nsw i32 %67, %66
  store i32 %68, ptr %9, align 4, !tbaa !3
  br label %69

69:                                               ; preds = %44
  %70 = load i32, ptr %8, align 4, !tbaa !3
  %71 = add nsw i32 %70, 1
  store i32 %71, ptr %8, align 4, !tbaa !3
  br label %29, !llvm.loop !77

72:                                               ; preds = %42
  br label %73

73:                                               ; preds = %72
  %74 = load i32, ptr %7, align 4, !tbaa !3
  %75 = add nsw i32 %74, 1
  store i32 %75, ptr %7, align 4, !tbaa !3
  br label %13, !llvm.loop !78

76:                                               ; preds = %26
  br label %140

77:                                               ; preds = %2
  store i32 0, ptr %7, align 4, !tbaa !3
  br label %78

78:                                               ; preds = %136, %77
  %79 = load i32, ptr %7, align 4, !tbaa !3
  %80 = load ptr, ptr %3, align 8, !tbaa !30
  %81 = getelementptr inbounds nuw %struct.Sim_Man_t_, ptr %80, i32 0, i32 0
  %82 = load ptr, ptr %81, align 8, !tbaa !46
  %83 = call i32 @Abc_NtkCoNum(ptr noundef %82)
  %84 = icmp slt i32 %79, %83
  br i1 %84, label %85, label %91

85:                                               ; preds = %78
  %86 = load ptr, ptr %3, align 8, !tbaa !30
  %87 = getelementptr inbounds nuw %struct.Sim_Man_t_, ptr %86, i32 0, i32 0
  %88 = load ptr, ptr %87, align 8, !tbaa !46
  %89 = load i32, ptr %7, align 4, !tbaa !3
  %90 = call ptr @Abc_NtkCo(ptr noundef %88, i32 noundef %89)
  store ptr %90, ptr %5, align 8, !tbaa !32
  br label %91

91:                                               ; preds = %85, %78
  %92 = phi i1 [ false, %78 ], [ true, %85 ]
  br i1 %92, label %93, label %139

93:                                               ; preds = %91
  store i32 0, ptr %8, align 4, !tbaa !3
  br label %94

94:                                               ; preds = %132, %93
  %95 = load i32, ptr %8, align 4, !tbaa !3
  %96 = load ptr, ptr %3, align 8, !tbaa !30
  %97 = getelementptr inbounds nuw %struct.Sim_Man_t_, ptr %96, i32 0, i32 0
  %98 = load ptr, ptr %97, align 8, !tbaa !46
  %99 = call i32 @Abc_NtkCiNum(ptr noundef %98)
  %100 = icmp slt i32 %95, %99
  br i1 %100, label %101, label %107

101:                                              ; preds = %94
  %102 = load ptr, ptr %3, align 8, !tbaa !30
  %103 = getelementptr inbounds nuw %struct.Sim_Man_t_, ptr %102, i32 0, i32 0
  %104 = load ptr, ptr %103, align 8, !tbaa !46
  %105 = load i32, ptr %8, align 4, !tbaa !3
  %106 = call ptr @Abc_NtkCi(ptr noundef %104, i32 noundef %105)
  store ptr %106, ptr %6, align 8, !tbaa !32
  br label %107

107:                                              ; preds = %101, %94
  %108 = phi i1 [ false, %94 ], [ true, %101 ]
  br i1 %108, label %109, label %135

109:                                              ; preds = %107
  %110 = load ptr, ptr %3, align 8, !tbaa !30
  %111 = getelementptr inbounds nuw %struct.Sim_Man_t_, ptr %110, i32 0, i32 11
  %112 = load ptr, ptr %111, align 8, !tbaa !79
  %113 = getelementptr inbounds nuw %struct.Vec_Ptr_t_, ptr %112, i32 0, i32 2
  %114 = load ptr, ptr %113, align 8, !tbaa !10
  %115 = load i32, ptr %7, align 4, !tbaa !3
  %116 = sext i32 %115 to i64
  %117 = getelementptr inbounds ptr, ptr %114, i64 %116
  %118 = load ptr, ptr %117, align 8, !tbaa !12
  %119 = load i32, ptr %8, align 4, !tbaa !3
  %120 = ashr i32 %119, 5
  %121 = sext i32 %120 to i64
  %122 = getelementptr inbounds i32, ptr %118, i64 %121
  %123 = load i32, ptr %122, align 4, !tbaa !3
  %124 = load i32, ptr %8, align 4, !tbaa !3
  %125 = and i32 %124, 31
  %126 = shl i32 1, %125
  %127 = and i32 %123, %126
  %128 = icmp ugt i32 %127, 0
  %129 = zext i1 %128 to i32
  %130 = load i32, ptr %9, align 4, !tbaa !3
  %131 = add nsw i32 %130, %129
  store i32 %131, ptr %9, align 4, !tbaa !3
  br label %132

132:                                              ; preds = %109
  %133 = load i32, ptr %8, align 4, !tbaa !3
  %134 = add nsw i32 %133, 1
  store i32 %134, ptr %8, align 4, !tbaa !3
  br label %94, !llvm.loop !80

135:                                              ; preds = %107
  br label %136

136:                                              ; preds = %135
  %137 = load i32, ptr %7, align 4, !tbaa !3
  %138 = add nsw i32 %137, 1
  store i32 %138, ptr %7, align 4, !tbaa !3
  br label %78, !llvm.loop !81

139:                                              ; preds = %91
  br label %140

140:                                              ; preds = %139, %76
  %141 = load i32, ptr %9, align 4, !tbaa !3
  call void @llvm.lifetime.end.p0(i64 4, ptr %9) #8
  call void @llvm.lifetime.end.p0(i64 4, ptr %8) #8
  call void @llvm.lifetime.end.p0(i64 4, ptr %7) #8
  call void @llvm.lifetime.end.p0(i64 8, ptr %6) #8
  call void @llvm.lifetime.end.p0(i64 8, ptr %5) #8
  ret i32 %141
}