; Function Attrs: nofree norecurse nosync nounwind memory(read, inaccessiblemem: none) uwtable
define i32 @Sim_UtilCountSuppSizes(ptr noundef readonly captures(none) %0, i32 noundef %1) local_unnamed_addr #9 {
  %.not = icmp eq i32 %1, 0
  %3 = load ptr, ptr %0, align 8, !tbaa !40
  %4 = getelementptr i8, ptr %3, i64 64
  %.val = load ptr, ptr %4, align 8, !tbaa !53
  %5 = getelementptr i8, ptr %.val, i64 4
  %.val.val = load i32, ptr %5, align 4, !tbaa !13
  %6 = icmp sgt i32 %.val.val, 0
  br i1 %.not, label %.preheader48, label %.preheader49

.preheader49:                                     ; preds = %2
  br i1 %6, label %.lr.ph55, label %.critedge

.lr.ph55:                                         ; preds = %.preheader49
  %7 = getelementptr i8, ptr %.val, i64 8
  %.val43.val = load ptr, ptr %7, align 8, !tbaa !9
  %8 = getelementptr i8, ptr %3, i64 56
  %.val44 = load ptr, ptr %8, align 8, !tbaa !70
  %9 = getelementptr i8, ptr %.val44, i64 4
  %.val44.val = load i32, ptr %9, align 4, !tbaa !13
  %10 = icmp sgt i32 %.val44.val, 0
  br i1 %10, label %.lr.ph55.split.us, label %.critedge

.lr.ph55.split.us:                                ; preds = %.lr.ph55
  %11 = getelementptr inbounds nuw i8, ptr %0, i64 56
  %12 = load ptr, ptr %11, align 8, !tbaa !71
  %13 = getelementptr inbounds nuw i8, ptr %12, i64 8
  %14 = load ptr, ptr %13, align 8, !tbaa !9
  %wide.trip.count = zext nneg i32 %.val.val to i64
  br label %.lr.ph.us

.lr.ph.us:                                        ; preds = %..critedge2_crit_edge.us, %.lr.ph55.split.us
  %indvars.iv = phi i64 [ %indvars.iv.next, %..critedge2_crit_edge.us ], [ 0, %.lr.ph55.split.us ]
  %.054.us = phi i32 [ %30, %..critedge2_crit_edge.us ], [ 0, %.lr.ph55.split.us ]
  %15 = getelementptr inbounds nuw ptr, ptr %.val43.val, i64 %indvars.iv
  %16 = load ptr, ptr %15, align 8, !tbaa !10
  %17 = getelementptr inbounds nuw i8, ptr %16, i64 16
  %18 = load i32, ptr %17, align 8, !tbaa !33
  %19 = sext i32 %18 to i64
  %20 = getelementptr inbounds ptr, ptr %14, i64 %19
  %21 = load ptr, ptr %20, align 8, !tbaa !10
  br label %22

22:                                               ; preds = %.lr.ph.us, %22
  %.152.us = phi i32 [ %.054.us, %.lr.ph.us ], [ %30, %22 ]
  %.03751.us = phi i32 [ 0, %.lr.ph.us ], [ %31, %22 ]
  %23 = lshr i32 %.03751.us, 5
  %24 = zext nneg i32 %23 to i64
  %25 = getelementptr inbounds nuw i32, ptr %21, i64 %24
  %26 = load i32, ptr %25, align 4, !tbaa !14
  %27 = and i32 %.03751.us, 31
  %28 = lshr i32 %26, %27
  %29 = and i32 %28, 1
  %30 = add nsw i32 %29, %.152.us
  %31 = add nuw nsw i32 %.03751.us, 1
  %exitcond.not = icmp eq i32 %31, %.val44.val
  br i1 %exitcond.not, label %..critedge2_crit_edge.us, label %22, !llvm.loop !72

..critedge2_crit_edge.us:                         ; preds = %22
  %indvars.iv.next = add nuw nsw i64 %indvars.iv, 1
  %exitcond70.not = icmp eq i64 %indvars.iv.next, %wide.trip.count
  br i1 %exitcond70.not, label %.critedge, label %.lr.ph.us, !llvm.loop !73

.preheader48:                                     ; preds = %2
  br i1 %6, label %.preheader.lr.ph, label %.critedge

.preheader.lr.ph:                                 ; preds = %.preheader48
  %32 = getelementptr i8, ptr %3, i64 56
  %.val45 = load ptr, ptr %32, align 8, !tbaa !70
  %33 = getelementptr i8, ptr %.val45, i64 4
  %.val45.val = load i32, ptr %33, align 4, !tbaa !13
  %34 = icmp sgt i32 %.val45.val, 0
  br i1 %34, label %.preheader.lr.ph.split.us, label %.critedge

.preheader.lr.ph.split.us:                        ; preds = %.preheader.lr.ph
  %35 = getelementptr inbounds nuw i8, ptr %0, i64 64
  %36 = load ptr, ptr %35, align 8, !tbaa !74
  %37 = getelementptr inbounds nuw i8, ptr %36, i64 8
  %38 = load ptr, ptr %37, align 8, !tbaa !9
  %wide.trip.count75 = zext nneg i32 %.val.val to i64
  br label %.preheader.us

.preheader.us:                                    ; preds = %..critedge6_crit_edge.us, %.preheader.lr.ph.split.us
  %indvars.iv72 = phi i64 [ %indvars.iv.next73, %..critedge6_crit_edge.us ], [ 0, %.preheader.lr.ph.split.us ]
  %.360.us = phi i32 [ %49, %..critedge6_crit_edge.us ], [ 0, %.preheader.lr.ph.split.us ]
  %39 = getelementptr inbounds nuw ptr, ptr %38, i64 %indvars.iv72
  %40 = load ptr, ptr %39, align 8, !tbaa !10
  br label %41

41:                                               ; preds = %.preheader.us, %41
  %.458.us = phi i32 [ %.360.us, %.preheader.us ], [ %49, %41 ]
  %.13857.us = phi i32 [ 0, %.preheader.us ], [ %50, %41 ]
  %42 = lshr i32 %.13857.us, 5
  %43 = zext nneg i32 %42 to i64
  %44 = getelementptr inbounds nuw i32, ptr %40, i64 %43
  %45 = load i32, ptr %44, align 4, !tbaa !14
  %46 = and i32 %.13857.us, 31
  %47 = lshr i32 %45, %46
  %48 = and i32 %47, 1
  %49 = add nsw i32 %48, %.458.us
  %50 = add nuw nsw i32 %.13857.us, 1
  %exitcond71.not = icmp eq i32 %50, %.val45.val
  br i1 %exitcond71.not, label %..critedge6_crit_edge.us, label %41, !llvm.loop !75

..critedge6_crit_edge.us:                         ; preds = %41
  %indvars.iv.next73 = add nuw nsw i64 %indvars.iv72, 1
  %exitcond76.not = icmp eq i64 %indvars.iv.next73, %wide.trip.count75
  br i1 %exitcond76.not, label %.critedge, label %.preheader.us, !llvm.loop !76

.critedge:                                        ; preds = %..critedge2_crit_edge.us, %..critedge6_crit_edge.us, %.preheader.lr.ph, %.lr.ph55, %.preheader49, %.preheader48
  %.2 = phi i32 [ 0, %.preheader48 ], [ 0, %.preheader49 ], [ 0, %.lr.ph55 ], [ 0, %.preheader.lr.ph ], [ %49, %..critedge6_crit_edge.us ], [ %30, %..critedge2_crit_edge.us ]
  ret i32 %.2
}